target datalayout = "e-m:e-p270:32:32-p271:32:32-p272:64:64-i64:64-i128:128-f80:128-n8:16:32:64-S128"
target triple = "x86_64-pc-linux-gnu"

%struct.darktable_t = type { %struct.dt_codepath_t, i32, i32, ptr, ptr, ptr, ptr, ptr, ptr, ptr, ptr, ptr, ptr, ptr, ptr, ptr, ptr, ptr, ptr, ptr, ptr, ptr, ptr, ptr, ptr, ptr, ptr, ptr, ptr, ptr, [64 x %struct.dt_pthread_mutex_t], %struct.dt_pthread_mutex_t, %struct.dt_pthread_mutex_t, %struct.dt_pthread_mutex_t, %struct.dt_pthread_mutex_t, %struct.dt_pthread_mutex_t, ptr, ptr, ptr, ptr, ptr, ptr, ptr, ptr, ptr, ptr, ptr, ptr, ptr, %struct.dt_lua_state_t, ptr, double, ptr, i32, [47 x i32], i32, i32, ptr, ptr, %struct.dt_sys_resources_t, %struct.dt_backthumb_t, %struct.dt_gimp_t }
%struct.dt_codepath_t = type { i8, [3 x i8] }
%struct.dt_pthread_mutex_t = type { %union.pthread_mutex_t }
%union.pthread_mutex_t = type { %struct.__pthread_mutex_s }
%struct.__pthread_mutex_s = type { i32, i32, i32, i32, i32, i16, i16, %struct.__pthread_internal_list }
%struct.__pthread_internal_list = type { ptr, ptr }
%struct.dt_lua_state_t = type { i32 }
%struct.dt_sys_resources_t = type { i64, i64, ptr, ptr, i32 }
%struct.dt_backthumb_t = type { double, double, i32, i32, i32, i32 }
%struct.dt_gimp_t = type { i32, ptr, ptr, i32, i32 }
%struct._GdkRGBA = type { double, double, double, double }
%struct.dt_gui_gtk_t = type { ptr, %struct.dt_gui_widgets_t, %struct.dt_gui_scrollbars_t, i32, ptr, i32, [39 x %struct._GdkRGBA], i32, i32, i32, i32, i32, double, double, double, double, ptr, double, double, double, double, i32, i32, [4096 x i8], i32, i32, i32, %struct.dt_pthread_mutex_t }
%struct.dt_gui_widgets_t = type { ptr, ptr, ptr, ptr, i32, i32, i32 }
%struct.dt_gui_scrollbars_t = type { ptr, ptr, i32 }

@darktable = external global %struct.darktable_t, align 8
@.str.24 = private unnamed_addr constant [5 x i8] c"font\00", align 1
@.str.61 = private unnamed_addr constant [5 x i8] c"tnum\00", align 1

; Function Attrs: nounwind uwtable
define internal i32 @_show_pango_text(ptr noundef %0, ptr noundef %1, ptr noundef %2, ptr noundef %3, float noundef %4, float noundef %5, float noundef %6, i32 noundef %7, i32 noundef %8, i32 noundef %9, i32 noundef %10, i32 noundef %11, ptr noundef %12, ptr noundef %13) #0 {
  %15 = alloca ptr, align 8
  %16 = alloca ptr, align 8
  %17 = alloca ptr, align 8
  %18 = alloca ptr, align 8
  %19 = alloca float, align 4
  %20 = alloca float, align 4
  %21 = alloca float, align 4
  %22 = alloca i32, align 4
  %23 = alloca i32, align 4
  %24 = alloca i32, align 4
  %25 = alloca i32, align 4
  %26 = alloca i32, align 4
  %27 = alloca ptr, align 8
  %28 = alloca ptr, align 8
  %29 = alloca ptr, align 8
  %30 = alloca ptr, align 8
  %31 = alloca ptr, align 8
  %32 = alloca i32, align 4
  %33 = alloca i32, align 4
  %34 = alloca float, align 4
  store ptr %0, ptr %15, align 8, !tbaa !17
  store ptr %1, ptr %16, align 8, !tbaa !74
  store ptr %2, ptr %17, align 8, !tbaa !91
  store ptr %3, ptr %18, align 8, !tbaa !171
  store float %4, ptr %19, align 4, !tbaa !130
  store float %5, ptr %20, align 4, !tbaa !130
  store float %6, ptr %21, align 4, !tbaa !130
  store i32 %7, ptr %22, align 4, !tbaa !13
  store i32 %8, ptr %23, align 4, !tbaa !13
  store i32 %9, ptr %24, align 4, !tbaa !13
  store i32 %10, ptr %25, align 4, !tbaa !13
  store i32 %11, ptr %26, align 4, !tbaa !13
  store ptr %12, ptr %27, align 8, !tbaa !338
  store ptr %13, ptr %28, align 8, !tbaa !338
  call void @llvm.lifetime.start.p0(i64 8, ptr %29) #13
  %35 = load ptr, ptr %17, align 8, !tbaa !91
  %36 = call ptr @pango_cairo_create_layout(ptr noundef %35)
  store ptr %36, ptr %29, align 8, !tbaa !93
  %37 = load float, ptr %21, align 4, !tbaa !130
  %38 = fcmp reassoc nsz arcp contract afn ogt float %37, 0.000000e+00
  br i1 %38, label %39, label %47

39:                                               ; preds = %14
  %40 = load ptr, ptr %29, align 8, !tbaa !93
  %41 = load i32, ptr %24, align 4, !tbaa !13
  call void @pango_layout_set_ellipsize(ptr noundef %40, i32 noundef %41)
  %42 = load ptr, ptr %29, align 8, !tbaa !93
  %43 = load float, ptr %21, align 4, !tbaa !130
  %44 = fmul reassoc nsz arcp contract afn float 1.024000e+03, %43
  %45 = fadd reassoc nsz arcp contract afn float %44, 5.000000e-01
  %46 = fptosi float %45 to i32
  call void @pango_layout_set_width(ptr noundef %42, i32 noundef %46)
  br label %47

47:                                               ; preds = %39, %14
  call void @llvm.lifetime.start.p0(i64 8, ptr %30) #13
  store ptr null, ptr %30, align 8, !tbaa !179
  %48 = load ptr, ptr %16, align 8, !tbaa !74
  %49 = load ptr, ptr %15, align 8, !tbaa !17
  %50 = call i64 @gtk_widget_get_type() #14
  %51 = call ptr @g_type_check_instance_cast(ptr noundef %49, i64 noundef %50)
  %52 = call i32 @gtk_widget_get_state_flags(ptr noundef %51)
  call void (ptr, i32, ...) @gtk_style_context_get(ptr noundef %48, i32 noundef %52, ptr noundef @.str.24, ptr noundef %30, ptr noundef null)
  %53 = load ptr, ptr %29, align 8, !tbaa !93
  %54 = load ptr, ptr %30, align 8, !tbaa !179
  call void @pango_layout_set_font_description(ptr noundef %53, ptr noundef %54)
  call void @llvm.lifetime.start.p0(i64 8, ptr %31) #13
  %55 = call ptr @pango_attr_list_new()
  store ptr %55, ptr %31, align 8, !tbaa !339
  %56 = load ptr, ptr %31, align 8, !tbaa !339
  %57 = call ptr @pango_attr_font_features_new(ptr noundef @.str.61)
  call void @pango_attr_list_insert(ptr noundef %56, ptr noundef %57)
  %58 = load ptr, ptr %29, align 8, !tbaa !93
  %59 = load ptr, ptr %31, align 8, !tbaa !339
  call void @pango_layout_set_attributes(ptr noundef %58, ptr noundef %59)
  %60 = load ptr, ptr %31, align 8, !tbaa !339
  call void @pango_attr_list_unref(ptr noundef %60)
  %61 = load ptr, ptr %18, align 8, !tbaa !171
  %62 = icmp ne ptr %61, null
  br i1 %62, label %63, label %73

63:                                               ; preds = %47
  %64 = load i32, ptr %25, align 4, !tbaa !13
  %65 = icmp ne i32 %64, 0
  br i1 %65, label %66, label %69

66:                                               ; preds = %63
  %67 = load ptr, ptr %29, align 8, !tbaa !93
  %68 = load ptr, ptr %18, align 8, !tbaa !171
  call void @pango_layout_set_markup(ptr noundef %67, ptr noundef %68, i32 noundef -1)
  br label %72

69:                                               ; preds = %63
  %70 = load ptr, ptr %29, align 8, !tbaa !93
  %71 = load ptr, ptr %18, align 8, !tbaa !171
  call void @pango_layout_set_text(ptr noundef %70, ptr noundef %71, i32 noundef -1)
  br label %72

72:                                               ; preds = %69, %66
  br label %75

73:                                               ; preds = %47
  %74 = load ptr, ptr %29, align 8, !tbaa !93
  call void @pango_layout_set_text(ptr noundef %74, ptr noundef null, i32 noundef 0)
  br label %75

75:                                               ; preds = %73, %72
  %76 = load ptr, ptr %29, align 8, !tbaa !93
  %77 = call ptr @pango_layout_get_context(ptr noundef %76)
  %78 = load ptr, ptr getelementptr inbounds nuw (%struct.darktable_t, ptr @darktable, i32 0, i32 14), align 8, !tbaa !33
  %79 = getelementptr inbounds nuw %struct.dt_gui_gtk_t, ptr %78, i32 0, i32 17
  %80 = load double, ptr %79, align 8, !tbaa !95
  call void @pango_cairo_context_set_resolution(ptr noundef %77, double noundef %80)
  call void @llvm.lifetime.start.p0(i64 4, ptr %32) #13
  call void @llvm.lifetime.start.p0(i64 4, ptr %33) #13
  %81 = load ptr, ptr %29, align 8, !tbaa !93
  call void @pango_layout_get_size(ptr noundef %81, ptr noundef %32, ptr noundef %33)
  call void @llvm.lifetime.start.p0(i64 4, ptr %34) #13
  %82 = load i32, ptr %32, align 4, !tbaa !13
  %83 = sitofp i32 %82 to double
  %84 = fdiv reassoc nsz arcp contract afn double %83, 1.024000e+03
  %85 = fptrunc reassoc nsz arcp contract afn double %84 to float
  store float %85, ptr %34, align 4, !tbaa !130
  %86 = load i32, ptr %23, align 4, !tbaa !13
  %87 = icmp ne i32 %86, 0
  br i1 %87, label %88, label %102

88:                                               ; preds = %75
  %89 = load ptr, ptr %27, align 8, !tbaa !338
  %90 = icmp ne ptr %89, null
  br i1 %90, label %91, label %102

91:                                               ; preds = %88
  %92 = load ptr, ptr %28, align 8, !tbaa !338
  %93 = icmp ne ptr %92, null
  br i1 %93, label %94, label %102

94:                                               ; preds = %91
  %95 = load float, ptr %34, align 4, !tbaa !130
  %96 = load ptr, ptr %27, align 8, !tbaa !338
  store float %95, ptr %96, align 4, !tbaa !130
  %97 = load i32, ptr %33, align 4, !tbaa !13
  %98 = sitofp i32 %97 to double
  %99 = fdiv reassoc nsz arcp contract afn double %98, 1.024000e+03
  %100 = fptrunc reassoc nsz arcp contract afn double %99 to float
  %101 = load ptr, ptr %28, align 8, !tbaa !338
  store float %100, ptr %101, align 4, !tbaa !130
  br label %102

102:                                              ; preds = %94, %91, %88, %75
  %103 = load i32, ptr %22, align 4, !tbaa !13
  %104 = icmp ne i32 %103, 0
  br i1 %104, label %105, label %109

105:                                              ; preds = %102
  %106 = load float, ptr %34, align 4, !tbaa !130
  %107 = load float, ptr %19, align 4, !tbaa !130
  %108 = fsub reassoc nsz arcp contract afn float %107, %106
  store float %108, ptr %19, align 4, !tbaa !130
  br label %109

109:                                              ; preds = %105, %102
  %110 = load i32, ptr %23, align 4, !tbaa !13
  %111 = icmp ne i32 %110, 0
  br i1 %111, label %120, label %112

112:                                              ; preds = %109
  %113 = load ptr, ptr %17, align 8, !tbaa !91
  %114 = load float, ptr %19, align 4, !tbaa !130
  %115 = fpext reassoc nsz arcp contract afn float %114 to double
  %116 = load float, ptr %20, align 4, !tbaa !130
  %117 = fpext reassoc nsz arcp contract afn float %116 to double
  call void @cairo_move_to(ptr noundef %113, double noundef %115, double noundef %117)
  %118 = load ptr, ptr %17, align 8, !tbaa !91
  %119 = load ptr, ptr %29, align 8, !tbaa !93
  call void @pango_cairo_show_layout(ptr noundef %118, ptr noundef %119)
  br label %120

120:                                              ; preds = %112, %109
  %121 = load ptr, ptr %30, align 8, !tbaa !179
  call void @pango_font_description_free(ptr noundef %121)
  %122 = load ptr, ptr %29, align 8, !tbaa !93
  call void @g_object_unref(ptr noundef %122)
  %123 = load float, ptr %34, align 4, !tbaa !130
  %124 = fptosi float %123 to i32
  call void @llvm.lifetime.end.p0(i64 4, ptr %34) #13
  call void @llvm.lifetime.end.p0(i64 4, ptr %33) #13
  call void @llvm.lifetime.end.p0(i64 4, ptr %32) #13
  call void @llvm.lifetime.end.p0(i64 8, ptr %31) #13
  call void @llvm.lifetime.end.p0(i64 8, ptr %30) #13
  call void @llvm.lifetime.end.p0(i64 8, ptr %29) #13
  ret i32 %124
}