; Function Attrs: nounwind uwtable
define internal fastcc i32 @_show_pango_text(ptr noundef %0, ptr noundef %1, ptr noundef %2, ptr noundef %3, float noundef %4, float noundef %5, float noundef %6, i32 noundef range(i32 0, 2) %7, i32 noundef range(i32 0, 2) %8, i32 noundef %9, i32 noundef range(i32 0, 2) %10, ptr noundef writeonly %11, ptr noundef writeonly %12) unnamed_addr #0 {
  %14 = alloca ptr, align 8
  %15 = alloca i32, align 4
  %16 = alloca i32, align 4
  %17 = tail call ptr @pango_cairo_create_layout(ptr noundef %2) #19
  %18 = fcmp reassoc nsz arcp contract afn ogt float %6, 0.000000e+00
  br i1 %18, label %19, label %23

19:                                               ; preds = %13
  tail call void @pango_layout_set_ellipsize(ptr noundef %17, i32 noundef %9) #19
  %20 = fmul reassoc nsz arcp contract afn float %6, 1.024000e+03
  %21 = fadd reassoc nsz arcp contract afn float %20, 5.000000e-01
  %22 = fptosi float %21 to i32
  tail call void @pango_layout_set_width(ptr noundef %17, i32 noundef %22) #19
  br label %23

23:                                               ; preds = %19, %13
  call void @llvm.lifetime.start.p0(i64 8, ptr nonnull %14) #19
  store ptr null, ptr %14, align 8, !tbaa !287
  %24 = tail call i64 @gtk_widget_get_type() #20
  %25 = tail call ptr @g_type_check_instance_cast(ptr noundef %0, i64 noundef %24) #19
  %26 = tail call i32 @gtk_widget_get_state_flags(ptr noundef %25) #19
  call void (ptr, i32, ...) @gtk_style_context_get(ptr noundef %1, i32 noundef %26, ptr noundef nonnull @.str.24, ptr noundef nonnull %14, ptr noundef null) #19
  %27 = load ptr, ptr %14, align 8, !tbaa !287
  call void @pango_layout_set_font_description(ptr noundef %17, ptr noundef %27) #19
  %28 = call ptr @pango_attr_list_new() #19
  %29 = call ptr @pango_attr_font_features_new(ptr noundef nonnull @.str.61) #19
  call void @pango_attr_list_insert(ptr noundef %28, ptr noundef %29) #19
  call void @pango_layout_set_attributes(ptr noundef %17, ptr noundef %28) #19
  call void @pango_attr_list_unref(ptr noundef %28) #19
  %.not = icmp eq ptr %3, null
  br i1 %.not, label %33, label %30

30:                                               ; preds = %23
  %.not45 = icmp eq i32 %10, 0
  br i1 %.not45, label %32, label %31

31:                                               ; preds = %30
  call void @pango_layout_set_markup(ptr noundef %17, ptr noundef nonnull %3, i32 noundef -1) #19
  br label %34

32:                                               ; preds = %30
  call void @pango_layout_set_text(ptr noundef %17, ptr noundef nonnull %3, i32 noundef -1) #19
  br label %34

33:                                               ; preds = %23
  call void @pango_layout_set_text(ptr noundef %17, ptr noundef null, i32 noundef 0) #19
  br label %34

34:                                               ; preds = %31, %32, %33
  %35 = call ptr @pango_layout_get_context(ptr noundef %17) #19
  %36 = load ptr, ptr getelementptr inbounds nuw (i8, ptr @darktable, i64 104), align 8, !tbaa !25
  %37 = getelementptr inbounds nuw i8, ptr %36, i64 1416
  %38 = load double, ptr %37, align 8, !tbaa !78
  call void @pango_cairo_context_set_resolution(ptr noundef %35, double noundef %38) #19
  call void @llvm.lifetime.start.p0(i64 4, ptr nonnull %15) #19
  call void @llvm.lifetime.start.p0(i64 4, ptr nonnull %16) #19
  call void @pango_layout_get_size(ptr noundef %17, ptr noundef nonnull %15, ptr noundef nonnull %16) #19
  %39 = load i32, ptr %15, align 4, !tbaa !79
  %40 = sitofp i32 %39 to double
  %41 = fmul reassoc nsz arcp contract afn double %40, 0x3F50000000000000
  %42 = fptrunc reassoc nsz arcp contract afn double %41 to float
  %43 = icmp ne i32 %8, 0
  %44 = icmp ne ptr %11, null
  %45 = icmp ne ptr %12, null
  %46 = and i1 %44, %45
  %or.cond3 = and i1 %43, %46
  br i1 %or.cond3, label %.thread, label %51

.thread:                                          ; preds = %34
  store float %42, ptr %11, align 4, !tbaa !144
  %47 = load i32, ptr %16, align 4, !tbaa !79
  %48 = sitofp i32 %47 to double
  %49 = fmul reassoc nsz arcp contract afn double %48, 0x3F50000000000000
  %50 = fptrunc reassoc nsz arcp contract afn double %49 to float
  store float %50, ptr %12, align 4, !tbaa !144
  br label %56

51:                                               ; preds = %34
  br i1 %43, label %56, label %52

52:                                               ; preds = %51
  %.not46 = icmp eq i32 %7, 0
  %53 = fsub reassoc nsz arcp contract afn float %4, %42
  %spec.select = select i1 %.not46, float %4, float %53
  %54 = fpext reassoc nsz arcp contract afn float %spec.select to double
  %55 = fpext reassoc nsz arcp contract afn float %5 to double
  call void @cairo_move_to(ptr noundef %2, double noundef %54, double noundef %55) #19
  call void @pango_cairo_show_layout(ptr noundef %2, ptr noundef %17) #19
  br label %56

56:                                               ; preds = %.thread, %52, %51
  %57 = load ptr, ptr %14, align 8, !tbaa !287
  call void @pango_font_description_free(ptr noundef %57) #19
  call void @g_object_unref(ptr noundef %17) #19
  %58 = fptosi float %42 to i32
  call void @llvm.lifetime.end.p0(i64 4, ptr nonnull %16) #19
  call void @llvm.lifetime.end.p0(i64 4, ptr nonnull %15) #19
  call void @llvm.lifetime.end.p0(i64 8, ptr nonnull %14) #19
  ret i32 %58
}